; ModuleID = '21/1802.cpp'
source_filename = "21/1802.cpp"
target datalayout = "e-m:e-p270:32:32-p271:32:32-p272:64:64-i64:64-f80:128-n8:16:32:64-S128"
target triple = "x86_64-pc-linux-gnu"

%"class.std::ios_base::Init" = type { i8 }
%"class.std::basic_istream" = type { i32 (...)**, i64, %"class.std::basic_ios" }
%"class.std::basic_ios" = type { %"class.std::ios_base", %"class.std::basic_ostream"*, i8, i8, %"class.std::basic_streambuf"*, %"class.std::ctype"*, %"class.std::num_put"*, %"class.std::num_get"* }
%"class.std::ios_base" = type { i32 (...)**, i64, i64, i32, i32, i32, %"struct.std::ios_base::_Callback_list"*, %"struct.std::ios_base::_Words", [8 x %"struct.std::ios_base::_Words"], i32, %"struct.std::ios_base::_Words"*, %"class.std::locale" }
%"struct.std::ios_base::_Callback_list" = type { %"struct.std::ios_base::_Callback_list"*, void (i32, %"class.std::ios_base"*, i32)*, i32, i32 }
%"struct.std::ios_base::_Words" = type { i8*, i64 }
%"class.std::locale" = type { %"class.std::locale::_Impl"* }
%"class.std::locale::_Impl" = type { i32, %"class.std::locale::facet"**, i64, %"class.std::locale::facet"**, i8** }
%"class.std::locale::facet" = type <{ i32 (...)**, i32, [4 x i8] }>
%"class.std::basic_ostream" = type { i32 (...)**, %"class.std::basic_ios" }
%"class.std::basic_streambuf" = type { i32 (...)**, i8*, i8*, i8*, i8*, i8*, i8*, %"class.std::locale" }
%"class.std::ctype" = type <{ %"class.std::locale::facet.base", [4 x i8], %struct.__locale_struct*, i8, [7 x i8], i32*, i32*, i16*, i8, [256 x i8], [256 x i8], i8, [6 x i8] }>
%"class.std::locale::facet.base" = type <{ i32 (...)**, i32 }>
%struct.__locale_struct = type { [13 x %struct.__locale_data*], i16*, i32*, i32*, [13 x i8*] }
%struct.__locale_data = type opaque
%"class.std::num_put" = type { %"class.std::locale::facet.base", [4 x i8] }
%"class.std::num_get" = type { %"class.std::locale::facet.base", [4 x i8] }

$_ZSt3absd = comdat any

@_ZStL8__ioinit = internal global %"class.std::ios_base::Init" zeroinitializer, align 1
@__dso_handle = external hidden global i8
@_ZSt3cin = external dso_local global %"class.std::basic_istream", align 8
@_ZSt4cout = external dso_local global %"class.std::basic_ostream", align 8
@.str = private unnamed_addr constant [2 x i8] c",\00", align 1
@llvm.global_ctors = appending global [1 x { i32, void ()*, i8* }] [{ i32, void ()*, i8* } { i32 65535, void ()* @_GLOBAL__sub_I_1802.cpp, i8* null }]

; Function Attrs: noinline uwtable
define internal void @__cxx_global_var_init() #0 section ".text.startup" {
  call void @_ZNSt8ios_base4InitC1Ev(%"class.std::ios_base::Init"* @_ZStL8__ioinit)
  %1 = call i32 @__cxa_atexit(void (i8*)* bitcast (void (%"class.std::ios_base::Init"*)* @_ZNSt8ios_base4InitD1Ev to void (i8*)*), i8* getelementptr inbounds (%"class.std::ios_base::Init", %"class.std::ios_base::Init"* @_ZStL8__ioinit, i32 0, i32 0), i8* @__dso_handle) #3
  ret void
}

declare dso_local void @_ZNSt8ios_base4InitC1Ev(%"class.std::ios_base::Init"*) unnamed_addr #1

; Function Attrs: nounwind
declare dso_local void @_ZNSt8ios_base4InitD1Ev(%"class.std::ios_base::Init"*) unnamed_addr #2

; Function Attrs: nounwind
declare dso_local i32 @__cxa_atexit(void (i8*)*, i8*, i8*) #3

; Function Attrs: noinline norecurse uwtable
define dso_local i32 @main() #4 {
  %1 = alloca i32, align 4
  %2 = alloca i32, align 4
  %3 = alloca double, align 8
  %4 = alloca double, align 8
  %5 = alloca double, align 8
  %6 = alloca i8*, align 8
  %7 = alloca i64, align 8
  %8 = alloca i32, align 4
  %9 = alloca i64, align 8
  %10 = alloca double, align 8
  %11 = alloca double, align 8
  store i32 0, i32* %1, align 4
  store double 0.000000e+00, double* %3, align 8
  store double 0.000000e+00, double* %5, align 8
  %12 = call dereferenceable(280) %"class.std::basic_istream"* @_ZNSirsERi(%"class.std::basic_istream"* @_ZSt3cin, i32* dereferenceable(4) %2)
  %13 = load i32, i32* %2, align 4
  %14 = zext i32 %13 to i64
  %15 = call i8* @llvm.stacksave()
  store i8* %15, i8** %6, align 8
  %16 = alloca i32, i64 %14, align 16
  store i64 %14, i64* %7, align 8
  %17 = load i32, i32* %2, align 4
  %18 = zext i32 %17 to i64
  %19 = alloca double, i64 %18, align 16
  store i64 %18, i64* %9, align 8
  store double 0.000000e+00, double* %10, align 8
  store double 0.000000e+00, double* %11, align 8
  store i32 0, i32* %8, align 4
  br label %20

20:                                               ; preds = %36, %0
  %21 = load i32, i32* %8, align 4
  %22 = load i32, i32* %2, align 4
  %23 = icmp slt i32 %21, %22
  br i1 %23, label %24, label %39

24:                                               ; preds = %20
  %25 = load i32, i32* %8, align 4
  %26 = sext i32 %25 to i64
  %27 = getelementptr inbounds i32, i32* %16, i64 %26
  %28 = call dereferenceable(280) %"class.std::basic_istream"* @_ZNSirsERi(%"class.std::basic_istream"* @_ZSt3cin, i32* dereferenceable(4) %27)
  %29 = load i32, i32* %8, align 4
  %30 = sext i32 %29 to i64
  %31 = getelementptr inbounds i32, i32* %16, i64 %30
  %32 = load i32, i32* %31, align 4
  %33 = sitofp i32 %32 to double
  %34 = load double, double* %3, align 8
  %35 = fadd double %34, %33
  store double %35, double* %3, align 8
  br label %36

36:                                               ; preds = %24
  %37 = load i32, i32* %8, align 4
  %38 = add nsw i32 %37, 1
  store i32 %38, i32* %8, align 4
  br label %20

39:                                               ; preds = %20
  %40 = load double, double* %3, align 8
  %41 = load i32, i32* %2, align 4
  %42 = sitofp i32 %41 to double
  %43 = fdiv double %40, %42
  store double %43, double* %4, align 8
  store i32 0, i32* %8, align 4
  br label %44

44:                                               ; preds = %72, %39
  %45 = load i32, i32* %8, align 4
  %46 = load i32, i32* %2, align 4
  %47 = icmp slt i32 %45, %46
  br i1 %47, label %48, label %75

48:                                               ; preds = %44
  %49 = load i32, i32* %8, align 4
  %50 = sext i32 %49 to i64
  %51 = getelementptr inbounds i32, i32* %16, i64 %50
  %52 = load i32, i32* %51, align 4
  %53 = sitofp i32 %52 to double
  %54 = load double, double* %4, align 8
  %55 = fsub double %53, %54
  %56 = call double @_ZSt3absd(double %55)
  %57 = load i32, i32* %8, align 4
  %58 = sext i32 %57 to i64
  %59 = getelementptr inbounds double, double* %19, i64 %58
  store double %56, double* %59, align 8
  %60 = load double, double* %5, align 8
  %61 = load i32, i32* %8, align 4
  %62 = sext i32 %61 to i64
  %63 = getelementptr inbounds double, double* %19, i64 %62
  %64 = load double, double* %63, align 8
  %65 = fcmp olt double %60, %64
  br i1 %65, label %66, label %71

66:                                               ; preds = %48
  %67 = load i32, i32* %8, align 4
  %68 = sext i32 %67 to i64
  %69 = getelementptr inbounds double, double* %19, i64 %68
  %70 = load double, double* %69, align 8
  store double %70, double* %5, align 8
  br label %71

71:                                               ; preds = %66, %48
  br label %72

72:                                               ; preds = %71
  %73 = load i32, i32* %8, align 4
  %74 = add nsw i32 %73, 1
  store i32 %74, i32* %8, align 4
  br label %44

75:                                               ; preds = %44
  store i32 0, i32* %8, align 4
  br label %76

76:                                               ; preds = %113, %75
  %77 = load i32, i32* %8, align 4
  %78 = load i32, i32* %2, align 4
  %79 = icmp slt i32 %77, %78
  br i1 %79, label %80, label %116

80:                                               ; preds = %76
  %81 = load i32, i32* %8, align 4
  %82 = sext i32 %81 to i64
  %83 = getelementptr inbounds double, double* %19, i64 %82
  %84 = load double, double* %83, align 8
  %85 = load double, double* %5, align 8
  %86 = fcmp oeq double %84, %85
  br i1 %86, label %87, label %96

87:                                               ; preds = %80
  %88 = load double, double* %10, align 8
  %89 = fcmp oeq double %88, 0.000000e+00
  br i1 %89, label %90, label %96

90:                                               ; preds = %87
  %91 = load i32, i32* %8, align 4
  %92 = sext i32 %91 to i64
  %93 = getelementptr inbounds i32, i32* %16, i64 %92
  %94 = load i32, i32* %93, align 4
  %95 = sitofp i32 %94 to double
  store double %95, double* %10, align 8
  br label %96

96:                                               ; preds = %90, %87, %80
  %97 = load i32, i32* %8, align 4
  %98 = sext i32 %97 to i64
  %99 = getelementptr inbounds double, double* %19, i64 %98
  %100 = load double, double* %99, align 8
  %101 = load double, double* %5, align 8
  %102 = fcmp oeq double %100, %101
  br i1 %102, label %103, label %112

103:                                              ; preds = %96
  %104 = load double, double* %10, align 8
  %105 = fcmp une double %104, 0.000000e+00
  br i1 %105, label %106, label %112

106:                                              ; preds = %103
  %107 = load i32, i32* %8, align 4
  %108 = sext i32 %107 to i64
  %109 = getelementptr inbounds i32, i32* %16, i64 %108
  %110 = load i32, i32* %109, align 4
  %111 = sitofp i32 %110 to double
  store double %111, double* %11, align 8
  br label %112

112:                                              ; preds = %106, %103, %96
  br label %113

113:                                              ; preds = %112
  %114 = load i32, i32* %8, align 4
  %115 = add nsw i32 %114, 1
  store i32 %115, i32* %8, align 4
  br label %76

116:                                              ; preds = %76
  %117 = load double, double* %10, align 8
  %118 = load double, double* %11, align 8
  %119 = fcmp ogt double %117, %118
  br i1 %119, label %120, label %126

120:                                              ; preds = %116
  %121 = load double, double* %11, align 8
  %122 = call dereferenceable(272) %"class.std::basic_ostream"* @_ZNSolsEd(%"class.std::basic_ostream"* @_ZSt4cout, double %121)
  %123 = call dereferenceable(272) %"class.std::basic_ostream"* @_ZStlsISt11char_traitsIcEERSt13basic_ostreamIcT_ES5_PKc(%"class.std::basic_ostream"* dereferenceable(272) %122, i8* getelementptr inbounds ([2 x i8], [2 x i8]* @.str, i64 0, i64 0))
  %124 = load double, double* %10, align 8
  %125 = call dereferenceable(272) %"class.std::basic_ostream"* @_ZNSolsEd(%"class.std::basic_ostream"* %123, double %124)
  br label %126

126:                                              ; preds = %120, %116
  %127 = load double, double* %10, align 8
  %128 = load double, double* %11, align 8
  %129 = fcmp olt double %127, %128
  br i1 %129, label %130, label %136

130:                                              ; preds = %126
  %131 = load double, double* %10, align 8
  %132 = call dereferenceable(272) %"class.std::basic_ostream"* @_ZNSolsEd(%"class.std::basic_ostream"* @_ZSt4cout, double %131)
  %133 = call dereferenceable(272) %"class.std::basic_ostream"* @_ZStlsISt11char_traitsIcEERSt13basic_ostreamIcT_ES5_PKc(%"class.std::basic_ostream"* dereferenceable(272) %132, i8* getelementptr inbounds ([2 x i8], [2 x i8]* @.str, i64 0, i64 0))
  %134 = load double, double* %11, align 8
  %135 = call dereferenceable(272) %"class.std::basic_ostream"* @_ZNSolsEd(%"class.std::basic_ostream"* %133, double %134)
  br label %136

136:                                              ; preds = %130, %126
  %137 = load double, double* %10, align 8
  %138 = load double, double* %11, align 8
  %139 = fcmp oeq double %137, %138
  br i1 %139, label %140, label %143

140:                                              ; preds = %136
  %141 = load double, double* %10, align 8
  %142 = call dereferenceable(272) %"class.std::basic_ostream"* @_ZNSolsEd(%"class.std::basic_ostream"* @_ZSt4cout, double %141)
  br label %143

143:                                              ; preds = %140, %136
  store i32 0, i32* %1, align 4
  %144 = load i8*, i8** %6, align 8
  call void @llvm.stackrestore(i8* %144)
  %145 = load i32, i32* %1, align 4
  ret i32 %145
}

declare dso_local dereferenceable(280) %"class.std::basic_istream"* @_ZNSirsERi(%"class.std::basic_istream"*, i32* dereferenceable(4)) #1

; Function Attrs: nounwind
declare i8* @llvm.stacksave() #3

; Function Attrs: noinline nounwind uwtable
define linkonce_odr dso_local double @_ZSt3absd(double %0) #5 comdat {
  %2 = alloca double, align 8
  store double %0, double* %2, align 8
  %3 = load double, double* %2, align 8
  %4 = call double @llvm.fabs.f64(double %3)
  ret double %4
}

declare dso_local dereferenceable(272) %"class.std::basic_ostream"* @_ZStlsISt11char_traitsIcEERSt13basic_ostreamIcT_ES5_PKc(%"class.std::basic_ostream"* dereferenceable(272), i8*) #1

declare dso_local dereferenceable(272) %"class.std::basic_ostream"* @_ZNSolsEd(%"class.std::basic_ostream"*, double) #1

; Function Attrs: nounwind
declare void @llvm.stackrestore(i8*) #3

; Function Attrs: nounwind readnone speculatable willreturn
declare double @llvm.fabs.f64(double) #6

; Function Attrs: noinline uwtable
define internal void @_GLOBAL__sub_I_1802.cpp() #0 section ".text.startup" {
  call void @__cxx_global_var_init()
  ret void
}


!llvm.module.flags = !{!0}
!llvm.ident = !{!1}

!0 = !{i32 1, !"wchar_size", i32 4}
!1 = !{!"clang version 10.0.0-4ubuntu1 "}
