; ModuleID = 'source-C-CXX/20/1802.cpp'
source_filename = "source-C-CXX/20/1802.cpp"
target datalayout = "e-m:e-p270:32:32-p271:32:32-p272:64:64-i64:64-f80:128-n8:16:32:64-S128"
target triple = "x86_64-pc-linux-gnu"

%"class.std::ios_base::Init" = type { i8 }
%"class.std::basic_istream" = type { i32 (...)**, i64, %"class.std::basic_ios" }
%"class.std::basic_ios" = type { %"class.std::ios_base", %"class.std::basic_ostream"*, i8, i8, %"class.std::basic_streambuf"*, %"class.std::ctype"*, %"class.std::num_put"*, %"class.std::num_get"* }
%"class.std::ios_base" = type { i32 (...)**, i64, i64, i32, i32, i32, %"struct.std::ios_base::_Callback_list"*, %"struct.std::ios_base::_Words", [8 x %"struct.std::ios_base::_Words"], i32, %"struct.std::ios_base::_Words"*, %"class.std::locale" }
%"struct.std::ios_base::_Callback_list" = type { %"struct.std::ios_base::_Callback_list"*, void (i32, %"class.std::ios_base"*, i32)*, i32, i32 }
%"struct.std::ios_base::_Words" = type { i8*, i64 }
%"class.std::locale" = type { %"class.std::locale::_Impl"* }
%"class.std::locale::_Impl" = type { i32, %"class.std::locale::facet"**, i64, %"class.std::locale::facet"**, i8** }
%"class.std::locale::facet" = type <{ i32 (...)**, i32, [4 x i8] }>
%"class.std::basic_ostream" = type { i32 (...)**, %"class.std::basic_ios" }
%"class.std::basic_streambuf" = type { i32 (...)**, i8*, i8*, i8*, i8*, i8*, i8*, %"class.std::locale" }
%"class.std::ctype" = type <{ %"class.std::locale::facet.base", [4 x i8], %struct.__locale_struct*, i8, [7 x i8], i32*, i32*, i16*, i8, [256 x i8], [256 x i8], i8, [6 x i8] }>
%"class.std::locale::facet.base" = type <{ i32 (...)**, i32 }>
%struct.__locale_struct = type { [13 x %struct.__locale_data*], i16*, i32*, i32*, [13 x i8*] }
%struct.__locale_data = type opaque
%"class.std::num_put" = type { %"class.std::locale::facet.base", [4 x i8] }
%"class.std::num_get" = type { %"class.std::locale::facet.base", [4 x i8] }

@_ZStL8__ioinit = internal global %"class.std::ios_base::Init" zeroinitializer, align 1
@__dso_handle = external hidden global i8
@_ZSt3cin = external global %"class.std::basic_istream", align 8
@_ZSt4cout = external global %"class.std::basic_ostream", align 8
@.str = private unnamed_addr constant [2 x i8] c",\00", align 1
@llvm.global_ctors = appending global [1 x { i32, void ()*, i8* }] [{ i32, void ()*, i8* } { i32 65535, void ()* @_GLOBAL__sub_I_1802.cpp, i8* null }]

declare void @_ZNSt8ios_base4InitC1Ev(%"class.std::ios_base::Init"* nonnull align 1 dereferenceable(1)) unnamed_addr #0

; Function Attrs: nounwind
declare void @_ZNSt8ios_base4InitD1Ev(%"class.std::ios_base::Init"* nonnull align 1 dereferenceable(1)) unnamed_addr #1

; Function Attrs: nofree nounwind
declare i32 @__cxa_atexit(void (i8*)*, i8*, i8*) local_unnamed_addr #2

; Function Attrs: mustprogress norecurse sspstrong uwtable
define dso_local i32 @main() local_unnamed_addr #3 {
  %1 = alloca i32, align 4
  %2 = bitcast i32* %1 to i8*
  call void @llvm.lifetime.start.p0i8(i64 4, i8* nonnull %2) #8
  %3 = call nonnull align 8 dereferenceable(16) %"class.std::basic_istream"* @_ZNSirsERi(%"class.std::basic_istream"* nonnull align 8 dereferenceable(16) @_ZSt3cin, i32* nonnull align 4 dereferenceable(4) %1)
  %4 = load i32, i32* %1, align 4, !tbaa !5
  %5 = zext i32 %4 to i64
  %6 = call i8* @llvm.stacksave()
  %7 = alloca i32, i64 %5, align 16
  %8 = load i32, i32* %1, align 4, !tbaa !5
  %9 = zext i32 %8 to i64
  %10 = alloca double, i64 %9, align 16
  %11 = icmp sgt i32 %8, 0
  br i1 %11, label %12, label %115

12:                                               ; preds = %0, %12
  %13 = phi i64 [ %20, %12 ], [ 0, %0 ]
  %14 = phi double [ %19, %12 ], [ 0.000000e+00, %0 ]
  %15 = getelementptr inbounds i32, i32* %7, i64 %13
  %16 = call nonnull align 8 dereferenceable(16) %"class.std::basic_istream"* @_ZNSirsERi(%"class.std::basic_istream"* nonnull align 8 dereferenceable(16) @_ZSt3cin, i32* nonnull align 4 dereferenceable(4) %15)
  %17 = load i32, i32* %15, align 4, !tbaa !5
  %18 = sitofp i32 %17 to double
  %19 = fadd double %14, %18
  %20 = add nuw nsw i64 %13, 1
  %21 = load i32, i32* %1, align 4, !tbaa !5
  %22 = sext i32 %21 to i64
  %23 = icmp slt i64 %20, %22
  br i1 %23, label %12, label %24, !llvm.loop !9

24:                                               ; preds = %12
  %25 = sitofp i32 %21 to double
  %26 = fdiv double %19, %25
  %27 = icmp sgt i32 %21, 0
  br i1 %27, label %28, label %115

28:                                               ; preds = %24
  %29 = zext i32 %21 to i64
  %30 = and i64 %29, 1
  %31 = icmp eq i32 %21, 1
  br i1 %31, label %34, label %32

32:                                               ; preds = %28
  %33 = and i64 %29, 4294967294
  br label %52

34:                                               ; preds = %52, %28
  %35 = phi double [ undef, %28 ], [ %72, %52 ]
  %36 = phi i64 [ 0, %28 ], [ %73, %52 ]
  %37 = phi double [ 0.000000e+00, %28 ], [ %72, %52 ]
  %38 = icmp eq i64 %30, 0
  br i1 %38, label %48, label %39

39:                                               ; preds = %34
  %40 = getelementptr inbounds i32, i32* %7, i64 %36
  %41 = load i32, i32* %40, align 4, !tbaa !5
  %42 = sitofp i32 %41 to double
  %43 = fsub double %42, %26
  %44 = call double @llvm.fabs.f64(double %43) #8
  %45 = getelementptr inbounds double, double* %10, i64 %36
  store double %44, double* %45, align 8, !tbaa !11
  %46 = fcmp olt double %37, %44
  %47 = select i1 %46, double %44, double %37
  br label %48

48:                                               ; preds = %34, %39
  %49 = phi double [ %35, %34 ], [ %47, %39 ]
  br i1 %27, label %50, label %115

50:                                               ; preds = %48
  %51 = zext i32 %21 to i64
  br label %76

52:                                               ; preds = %52, %32
  %53 = phi i64 [ 0, %32 ], [ %73, %52 ]
  %54 = phi double [ 0.000000e+00, %32 ], [ %72, %52 ]
  %55 = phi i64 [ %33, %32 ], [ %74, %52 ]
  %56 = getelementptr inbounds i32, i32* %7, i64 %53
  %57 = load i32, i32* %56, align 8, !tbaa !5
  %58 = sitofp i32 %57 to double
  %59 = fsub double %58, %26
  %60 = call double @llvm.fabs.f64(double %59) #8
  %61 = getelementptr inbounds double, double* %10, i64 %53
  store double %60, double* %61, align 16, !tbaa !11
  %62 = fcmp olt double %54, %60
  %63 = select i1 %62, double %60, double %54
  %64 = or i64 %53, 1
  %65 = getelementptr inbounds i32, i32* %7, i64 %64
  %66 = load i32, i32* %65, align 4, !tbaa !5
  %67 = sitofp i32 %66 to double
  %68 = fsub double %67, %26
  %69 = call double @llvm.fabs.f64(double %68) #8
  %70 = getelementptr inbounds double, double* %10, i64 %64
  store double %69, double* %70, align 8, !tbaa !11
  %71 = fcmp olt double %63, %69
  %72 = select i1 %71, double %69, double %63
  %73 = add nuw nsw i64 %53, 2
  %74 = add i64 %55, -2
  %75 = icmp eq i64 %74, 0
  br i1 %75, label %34, label %52, !llvm.loop !13

76:                                               ; preds = %50, %97
  %77 = phi i64 [ 0, %50 ], [ %99, %97 ]
  %78 = phi double [ 0.000000e+00, %50 ], [ %98, %97 ]
  %79 = phi double [ 0.000000e+00, %50 ], [ %90, %97 ]
  %80 = getelementptr inbounds double, double* %10, i64 %77
  %81 = load double, double* %80, align 8, !tbaa !11
  %82 = fcmp oeq double %81, %49
  %83 = fcmp oeq double %79, 0.000000e+00
  %84 = select i1 %82, i1 %83, i1 false
  br i1 %84, label %85, label %89

85:                                               ; preds = %76
  %86 = getelementptr inbounds i32, i32* %7, i64 %77
  %87 = load i32, i32* %86, align 4, !tbaa !5
  %88 = sitofp i32 %87 to double
  br label %89

89:                                               ; preds = %85, %76
  %90 = phi double [ %88, %85 ], [ %79, %76 ]
  %91 = fcmp une double %90, 0.000000e+00
  %92 = select i1 %82, i1 %91, i1 false
  br i1 %92, label %93, label %97

93:                                               ; preds = %89
  %94 = getelementptr inbounds i32, i32* %7, i64 %77
  %95 = load i32, i32* %94, align 4, !tbaa !5
  %96 = sitofp i32 %95 to double
  br label %97

97:                                               ; preds = %89, %93
  %98 = phi double [ %96, %93 ], [ %78, %89 ]
  %99 = add nuw nsw i64 %77, 1
  %100 = icmp eq i64 %99, %51
  br i1 %100, label %101, label %76, !llvm.loop !14

101:                                              ; preds = %97
  %102 = fcmp ogt double %90, %98
  br i1 %102, label %103, label %107

103:                                              ; preds = %101
  %104 = call nonnull align 8 dereferenceable(8) %"class.std::basic_ostream"* @_ZNSo9_M_insertIdEERSoT_(%"class.std::basic_ostream"* nonnull align 8 dereferenceable(8) @_ZSt4cout, double %98)
  %105 = call nonnull align 8 dereferenceable(8) %"class.std::basic_ostream"* @_ZSt16__ostream_insertIcSt11char_traitsIcEERSt13basic_ostreamIT_T0_ES6_PKS3_l(%"class.std::basic_ostream"* nonnull align 8 dereferenceable(8) %104, i8* nonnull getelementptr inbounds ([2 x i8], [2 x i8]* @.str, i64 0, i64 0), i64 1)
  %106 = call nonnull align 8 dereferenceable(8) %"class.std::basic_ostream"* @_ZNSo9_M_insertIdEERSoT_(%"class.std::basic_ostream"* nonnull align 8 dereferenceable(8) %104, double %90)
  br label %107

107:                                              ; preds = %103, %101
  %108 = fcmp olt double %90, %98
  br i1 %108, label %109, label %113

109:                                              ; preds = %107
  %110 = call nonnull align 8 dereferenceable(8) %"class.std::basic_ostream"* @_ZNSo9_M_insertIdEERSoT_(%"class.std::basic_ostream"* nonnull align 8 dereferenceable(8) @_ZSt4cout, double %90)
  %111 = call nonnull align 8 dereferenceable(8) %"class.std::basic_ostream"* @_ZSt16__ostream_insertIcSt11char_traitsIcEERSt13basic_ostreamIT_T0_ES6_PKS3_l(%"class.std::basic_ostream"* nonnull align 8 dereferenceable(8) %110, i8* nonnull getelementptr inbounds ([2 x i8], [2 x i8]* @.str, i64 0, i64 0), i64 1)
  %112 = call nonnull align 8 dereferenceable(8) %"class.std::basic_ostream"* @_ZNSo9_M_insertIdEERSoT_(%"class.std::basic_ostream"* nonnull align 8 dereferenceable(8) %110, double %98)
  br label %113

113:                                              ; preds = %109, %107
  %114 = fcmp oeq double %90, %98
  br i1 %114, label %115, label %118

115:                                              ; preds = %24, %0, %48, %113
  %116 = phi double [ %90, %113 ], [ 0.000000e+00, %48 ], [ 0.000000e+00, %0 ], [ 0.000000e+00, %24 ]
  %117 = call nonnull align 8 dereferenceable(8) %"class.std::basic_ostream"* @_ZNSo9_M_insertIdEERSoT_(%"class.std::basic_ostream"* nonnull align 8 dereferenceable(8) @_ZSt4cout, double %116)
  br label %118

118:                                              ; preds = %115, %113
  call void @llvm.stackrestore(i8* %6)
  call void @llvm.lifetime.end.p0i8(i64 4, i8* nonnull %2) #8
  ret i32 0
}

; Function Attrs: argmemonly mustprogress nofree nosync nounwind willreturn
declare void @llvm.lifetime.start.p0i8(i64 immarg, i8* nocapture) #4

declare nonnull align 8 dereferenceable(16) %"class.std::basic_istream"* @_ZNSirsERi(%"class.std::basic_istream"* nonnull align 8 dereferenceable(16), i32* nonnull align 4 dereferenceable(4)) local_unnamed_addr #0

; Function Attrs: mustprogress nofree nosync nounwind willreturn
declare i8* @llvm.stacksave() #5

; Function Attrs: argmemonly mustprogress nofree nosync nounwind willreturn
declare void @llvm.lifetime.end.p0i8(i64 immarg, i8* nocapture) #4

; Function Attrs: mustprogress nofree nosync nounwind willreturn
declare void @llvm.stackrestore(i8*) #5

; Function Attrs: mustprogress nofree nosync nounwind readnone speculatable willreturn
declare double @llvm.fabs.f64(double) #6

declare nonnull align 8 dereferenceable(8) %"class.std::basic_ostream"* @_ZNSo9_M_insertIdEERSoT_(%"class.std::basic_ostream"* nonnull align 8 dereferenceable(8), double) local_unnamed_addr #0

declare nonnull align 8 dereferenceable(8) %"class.std::basic_ostream"* @_ZSt16__ostream_insertIcSt11char_traitsIcEERSt13basic_ostreamIT_T0_ES6_PKS3_l(%"class.std::basic_ostream"* nonnull align 8 dereferenceable(8), i8*, i64) local_unnamed_addr #0

; Function Attrs: sspstrong uwtable
define internal void @_GLOBAL__sub_I_1802.cpp() #7 section ".text.startup" {
  tail call void @_ZNSt8ios_base4InitC1Ev(%"class.std::ios_base::Init"* nonnull align 1 dereferenceable(1) @_ZStL8__ioinit)
  %1 = tail call i32 @__cxa_atexit(void (i8*)* bitcast (void (%"class.std::ios_base::Init"*)* @_ZNSt8ios_base4InitD1Ev to void (i8*)*), i8* getelementptr inbounds (%"class.std::ios_base::Init", %"class.std::ios_base::Init"* @_ZStL8__ioinit, i64 0, i32 0), i8* nonnull @__dso_handle) #8
  ret void
}


!llvm.module.flags = !{!0, !1, !2, !3}
!llvm.ident = !{!4}

!0 = !{i32 1, !"wchar_size", i32 4}
!1 = !{i32 7, !"PIC Level", i32 2}
!2 = !{i32 7, !"PIE Level", i32 2}
!3 = !{i32 7, !"uwtable", i32 1}
!4 = !{!"clang version 13.0.0"}
!5 = !{!6, !6, i64 0}
!6 = !{!"int", !7, i64 0}
!7 = !{!"omnipotent char", !8, i64 0}
!8 = !{!"Simple C++ TBAA"}
!9 = distinct !{!9, !10}
!10 = !{!"llvm.loop.mustprogress"}
!11 = !{!12, !12, i64 0}
!12 = !{!"double", !7, i64 0}
!13 = distinct !{!13, !10}
!14 = distinct !{!14, !10}
